target datalayout = "e-m:e-p270:32:32-p271:32:32-p272:64:64-i64:64-i128:128-f80:128-n8:16:32:64-S128"
target triple = "x86_64-pc-linux-gnu"

%"struct.llvm::Align" = type { i8 }
%"class.llvm::MachineFrameInfo" = type { %"struct.llvm::Align", i8, i8, %"class.std::vector", i32, i8, i8, i8, i8, i8, i64, i64, %"struct.llvm::Align", i8, i8, i32, i32, i64, i32, %"class.std::vector.0", i8, %"class.llvm::SmallVector", i64, %"struct.llvm::Align", i8, i8, i8, i8, i8, i8, ptr, ptr, i64 }
%"class.std::vector" = type { %"struct.std::_Vector_base" }
%"struct.std::_Vector_base" = type { %"struct.std::_Vector_base<llvm::MachineFrameInfo::StackObject, std::allocator<llvm::MachineFrameInfo::StackObject>>::_Vector_impl" }
%"struct.std::_Vector_base<llvm::MachineFrameInfo::StackObject, std::allocator<llvm::MachineFrameInfo::StackObject>>::_Vector_impl" = type { %"struct.std::_Vector_base<llvm::MachineFrameInfo::StackObject, std::allocator<llvm::MachineFrameInfo::StackObject>>::_Vector_impl_data" }
%"struct.std::_Vector_base<llvm::MachineFrameInfo::StackObject, std::allocator<llvm::MachineFrameInfo::StackObject>>::_Vector_impl_data" = type { ptr, ptr, ptr }
%"class.std::vector.0" = type { %"struct.std::_Vector_base.1" }
%"struct.std::_Vector_base.1" = type { %"struct.std::_Vector_base<llvm::CalleeSavedInfo, std::allocator<llvm::CalleeSavedInfo>>::_Vector_impl" }
%"struct.std::_Vector_base<llvm::CalleeSavedInfo, std::allocator<llvm::CalleeSavedInfo>>::_Vector_impl" = type { %"struct.std::_Vector_base<llvm::CalleeSavedInfo, std::allocator<llvm::CalleeSavedInfo>>::_Vector_impl_data" }
%"struct.std::_Vector_base<llvm::CalleeSavedInfo, std::allocator<llvm::CalleeSavedInfo>>::_Vector_impl_data" = type { ptr, ptr, ptr }
%"class.llvm::SmallVector" = type { %"class.llvm::SmallVectorImpl", %"struct.llvm::SmallVectorStorage" }
%"class.llvm::SmallVectorImpl" = type { %"class.llvm::SmallVectorTemplateBase" }
%"class.llvm::SmallVectorTemplateBase" = type { %"class.llvm::SmallVectorTemplateCommon" }
%"class.llvm::SmallVectorTemplateCommon" = type { %"class.llvm::SmallVectorBase" }
%"class.llvm::SmallVectorBase" = type { ptr, i32, i32 }
%"struct.llvm::SmallVectorStorage" = type { [512 x i8] }

; Function Attrs: mustprogress nounwind uwtable
define linkonce_odr hidden noundef zeroext i1 @_ZN4llvmltENS_5AlignES0_(i8 %0, i8 %1) #0 comdat {
  %3 = alloca %"struct.llvm::Align", align 1
  %4 = alloca %"struct.llvm::Align", align 1
  %5 = getelementptr inbounds nuw %"struct.llvm::Align", ptr %3, i32 0, i32 0
  store i8 %0, ptr %5, align 1
  %6 = getelementptr inbounds nuw %"struct.llvm::Align", ptr %4, i32 0, i32 0
  store i8 %1, ptr %6, align 1
  %7 = getelementptr inbounds nuw %"struct.llvm::Align", ptr %3, i32 0, i32 0
  %8 = load i8, ptr %7, align 1
  %9 = zext i8 %8 to i32
  %10 = getelementptr inbounds nuw %"struct.llvm::Align", ptr %4, i32 0, i32 0
  %11 = load i8, ptr %10, align 1
  %12 = zext i8 %11 to i32
  %13 = icmp slt i32 %9, %12
  ret i1 %13
}

; Function Attrs: mustprogress nounwind uwtable
define dso_local void @_ZN4llvm16MachineFrameInfo18ensureMaxAlignmentENS_5AlignE(ptr noundef nonnull align 8 dereferenceable(696) %0, i8 %1) #0 align 2 {
  %3 = alloca %"struct.llvm::Align", align 1
  %4 = alloca ptr, align 8
  %5 = alloca %"struct.llvm::Align", align 1
  %6 = alloca %"struct.llvm::Align", align 1
  %7 = getelementptr inbounds nuw %"struct.llvm::Align", ptr %3, i32 0, i32 0
  store i8 %1, ptr %7, align 1
  store ptr %0, ptr %4, align 8
  %8 = load ptr, ptr %4, align 8
  %9 = getelementptr inbounds nuw %"class.llvm::MachineFrameInfo", ptr %8, i32 0, i32 1
  %10 = load i8, ptr %9, align 1
  %11 = trunc i8 %10 to i1
  br i1 %11, label %13, label %12

12:                                               ; preds = %2
  br label %13

13:                                               ; preds = %12, %2
  %14 = getelementptr inbounds nuw %"class.llvm::MachineFrameInfo", ptr %8, i32 0, i32 12
  call void @llvm.memcpy.p0.p0.i64(ptr align 1 %5, ptr align 8 %14, i64 1, i1 false)
  call void @llvm.memcpy.p0.p0.i64(ptr align 1 %6, ptr align 1 %3, i64 1, i1 false)
  %15 = getelementptr inbounds nuw %"struct.llvm::Align", ptr %5, i32 0, i32 0
  %16 = load i8, ptr %15, align 1
  %17 = getelementptr inbounds nuw %"struct.llvm::Align", ptr %6, i32 0, i32 0
  %18 = load i8, ptr %17, align 1
  %19 = call noundef zeroext i1 @_ZN4llvmltENS_5AlignES0_(i8 %16, i8 %18)
  br i1 %19, label %20, label %22

20:                                               ; preds = %13
  %21 = getelementptr inbounds nuw %"class.llvm::MachineFrameInfo", ptr %8, i32 0, i32 12
  call void @llvm.memcpy.p0.p0.i64(ptr align 8 %21, ptr align 1 %3, i64 1, i1 false)
  br label %22

22:                                               ; preds = %20, %13
  ret void
}