; Function Attrs: mustprogress nofree norecurse nosync nounwind willreturn memory(argmem: readwrite) uwtable
define dso_local void @_ZN4llvm16MachineFrameInfo18ensureMaxAlignmentENS_5AlignE(ptr nocapture noundef nonnull align 8 dereferenceable(696) %0, i8 %1) local_unnamed_addr #0 align 2 {
  %3 = getelementptr inbounds nuw i8, ptr %0, i64 64
  %.sroa.01.0.copyload = load i8, ptr %3, align 8
  %4 = icmp ult i8 %.sroa.01.0.copyload, %1
  br i1 %4, label %5, label %6

5:                                                ; preds = %2
  store i8 %1, ptr %3, align 8
  br label %6

6:                                                ; preds = %5, %2
  ret void
}